target datalayout = "e-m:e-p270:32:32-p271:32:32-p272:64:64-i64:64-i128:128-f80:128-n8:16:32:64-S128"
target triple = "x86_64-pc-linux-gnu"

%struct.Wln_Ntk_t_ = type { ptr, ptr, i32, %struct.Vec_Int_t_, %struct.Vec_Int_t_, %struct.Vec_Int_t_, %struct.Vec_Int_t_, ptr, %struct.Vec_Int_t_, ptr, %struct.Vec_Int_t_, %struct.Vec_Int_t_, ptr, %struct.Vec_Str_t_, i32, %struct.Vec_Int_t_, %struct.Vec_Int_t_, %struct.Vec_Int_t_, %struct.Vec_Int_t_, %struct.Vec_Int_t_, %struct.Vec_Int_t_, %struct.Vec_Int_t_, %struct.Vec_Int_t_, ptr, [99 x i32], [99 x i32] }
%struct.Vec_Str_t_ = type { i32, i32, ptr }
%struct.Vec_Int_t_ = type { i32, i32, ptr }
%struct.Hash_IntMan_t_ = type { ptr, ptr, i32 }

; Function Attrs: inlinehint nounwind uwtable
define internal i32 @Vec_IntSize(ptr noundef %0) #4 {
  %2 = alloca ptr, align 8
  store ptr %0, ptr %2, align 8, !tbaa !26
  %3 = load ptr, ptr %2, align 8, !tbaa !26
  %4 = getelementptr inbounds nuw %struct.Vec_Int_t_, ptr %3, i32 0, i32 1
  %5 = load i32, ptr %4, align 4, !tbaa !34
  ret i32 %5
}

; Function Attrs: inlinehint nounwind uwtable
define internal i32 @Hash_IntManEntryNum(ptr noundef %0) #4 {
  %2 = alloca ptr, align 8
  store ptr %0, ptr %2, align 8, !tbaa !37
  %3 = load ptr, ptr %2, align 8, !tbaa !37
  %4 = getelementptr inbounds nuw %struct.Hash_IntMan_t_, ptr %3, i32 0, i32 1
  %5 = load ptr, ptr %4, align 8, !tbaa !40
  %6 = call i32 @Vec_IntSize(ptr noundef %5)
  %7 = sdiv i32 %6, 4
  %8 = sub nsw i32 %7, 1
  ret i32 %8
}

; Function Attrs: nounwind uwtable
define i32 @Wln_NtkMemUsage(ptr noundef %0) #0 {
  %2 = alloca ptr, align 8
  %3 = alloca i32, align 4
  store ptr %0, ptr %2, align 8, !tbaa !10
  call void @llvm.lifetime.start.p0(i64 4, ptr %3) #11
  store i32 1112, ptr %3, align 4, !tbaa !8
  %4 = load ptr, ptr %2, align 8, !tbaa !10
  %5 = getelementptr inbounds nuw %struct.Wln_Ntk_t_, ptr %4, i32 0, i32 3
  %6 = getelementptr inbounds nuw %struct.Vec_Int_t_, ptr %5, i32 0, i32 0
  %7 = load i32, ptr %6, align 8, !tbaa !71
  %8 = mul nsw i32 4, %7
  %9 = load i32, ptr %3, align 4, !tbaa !8
  %10 = add nsw i32 %9, %8
  store i32 %10, ptr %3, align 4, !tbaa !8
  %11 = load ptr, ptr %2, align 8, !tbaa !10
  %12 = getelementptr inbounds nuw %struct.Wln_Ntk_t_, ptr %11, i32 0, i32 4
  %13 = getelementptr inbounds nuw %struct.Vec_Int_t_, ptr %12, i32 0, i32 0
  %14 = load i32, ptr %13, align 8, !tbaa !72
  %15 = mul nsw i32 4, %14
  %16 = load i32, ptr %3, align 4, !tbaa !8
  %17 = add nsw i32 %16, %15
  store i32 %17, ptr %3, align 4, !tbaa !8
  %18 = load ptr, ptr %2, align 8, !tbaa !10
  %19 = getelementptr inbounds nuw %struct.Wln_Ntk_t_, ptr %18, i32 0, i32 5
  %20 = getelementptr inbounds nuw %struct.Vec_Int_t_, ptr %19, i32 0, i32 0
  %21 = load i32, ptr %20, align 8, !tbaa !73
  %22 = mul nsw i32 4, %21
  %23 = load i32, ptr %3, align 4, !tbaa !8
  %24 = add nsw i32 %23, %22
  store i32 %24, ptr %3, align 4, !tbaa !8
  %25 = load ptr, ptr %2, align 8, !tbaa !10
  %26 = getelementptr inbounds nuw %struct.Wln_Ntk_t_, ptr %25, i32 0, i32 6
  %27 = getelementptr inbounds nuw %struct.Vec_Int_t_, ptr %26, i32 0, i32 0
  %28 = load i32, ptr %27, align 8, !tbaa !74
  %29 = mul nsw i32 1, %28
  %30 = load i32, ptr %3, align 4, !tbaa !8
  %31 = add nsw i32 %30, %29
  store i32 %31, ptr %3, align 4, !tbaa !8
  %32 = load ptr, ptr %2, align 8, !tbaa !10
  %33 = getelementptr inbounds nuw %struct.Wln_Ntk_t_, ptr %32, i32 0, i32 8
  %34 = getelementptr inbounds nuw %struct.Vec_Int_t_, ptr %33, i32 0, i32 0
  %35 = load i32, ptr %34, align 8, !tbaa !75
  %36 = mul nsw i32 4, %35
  %37 = load i32, ptr %3, align 4, !tbaa !8
  %38 = add nsw i32 %37, %36
  store i32 %38, ptr %3, align 4, !tbaa !8
  %39 = load ptr, ptr %2, align 8, !tbaa !10
  %40 = getelementptr inbounds nuw %struct.Wln_Ntk_t_, ptr %39, i32 0, i32 10
  %41 = getelementptr inbounds nuw %struct.Vec_Int_t_, ptr %40, i32 0, i32 0
  %42 = load i32, ptr %41, align 8, !tbaa !76
  %43 = mul nsw i32 4, %42
  %44 = load i32, ptr %3, align 4, !tbaa !8
  %45 = add nsw i32 %44, %43
  store i32 %45, ptr %3, align 4, !tbaa !8
  %46 = load ptr, ptr %2, align 8, !tbaa !10
  %47 = getelementptr inbounds nuw %struct.Wln_Ntk_t_, ptr %46, i32 0, i32 11
  %48 = getelementptr inbounds nuw %struct.Vec_Int_t_, ptr %47, i32 0, i32 0
  %49 = load i32, ptr %48, align 8, !tbaa !77
  %50 = mul nsw i32 4, %49
  %51 = load i32, ptr %3, align 4, !tbaa !8
  %52 = add nsw i32 %51, %50
  store i32 %52, ptr %3, align 4, !tbaa !8
  %53 = load ptr, ptr %2, align 8, !tbaa !10
  %54 = getelementptr inbounds nuw %struct.Wln_Ntk_t_, ptr %53, i32 0, i32 15
  %55 = getelementptr inbounds nuw %struct.Vec_Int_t_, ptr %54, i32 0, i32 0
  %56 = load i32, ptr %55, align 8, !tbaa !78
  %57 = mul nsw i32 4, %56
  %58 = load i32, ptr %3, align 4, !tbaa !8
  %59 = add nsw i32 %58, %57
  store i32 %59, ptr %3, align 4, !tbaa !8
  %60 = load ptr, ptr %2, align 8, !tbaa !10
  %61 = getelementptr inbounds nuw %struct.Wln_Ntk_t_, ptr %60, i32 0, i32 16
  %62 = getelementptr inbounds nuw %struct.Vec_Int_t_, ptr %61, i32 0, i32 0
  %63 = load i32, ptr %62, align 8, !tbaa !79
  %64 = mul nsw i32 4, %63
  %65 = load i32, ptr %3, align 4, !tbaa !8
  %66 = add nsw i32 %65, %64
  store i32 %66, ptr %3, align 4, !tbaa !8
  %67 = load ptr, ptr %2, align 8, !tbaa !10
  %68 = getelementptr inbounds nuw %struct.Wln_Ntk_t_, ptr %67, i32 0, i32 17
  %69 = getelementptr inbounds nuw %struct.Vec_Int_t_, ptr %68, i32 0, i32 0
  %70 = load i32, ptr %69, align 8, !tbaa !80
  %71 = mul nsw i32 4, %70
  %72 = load i32, ptr %3, align 4, !tbaa !8
  %73 = add nsw i32 %72, %71
  store i32 %73, ptr %3, align 4, !tbaa !8
  %74 = load ptr, ptr %2, align 8, !tbaa !10
  %75 = getelementptr inbounds nuw %struct.Wln_Ntk_t_, ptr %74, i32 0, i32 18
  %76 = getelementptr inbounds nuw %struct.Vec_Int_t_, ptr %75, i32 0, i32 0
  %77 = load i32, ptr %76, align 8, !tbaa !81
  %78 = mul nsw i32 4, %77
  %79 = load i32, ptr %3, align 4, !tbaa !8
  %80 = add nsw i32 %79, %78
  store i32 %80, ptr %3, align 4, !tbaa !8
  %81 = load ptr, ptr %2, align 8, !tbaa !10
  %82 = getelementptr inbounds nuw %struct.Wln_Ntk_t_, ptr %81, i32 0, i32 19
  %83 = getelementptr inbounds nuw %struct.Vec_Int_t_, ptr %82, i32 0, i32 0
  %84 = load i32, ptr %83, align 8, !tbaa !82
  %85 = mul nsw i32 4, %84
  %86 = load i32, ptr %3, align 4, !tbaa !8
  %87 = add nsw i32 %86, %85
  store i32 %87, ptr %3, align 4, !tbaa !8
  %88 = load ptr, ptr %2, align 8, !tbaa !10
  %89 = getelementptr inbounds nuw %struct.Wln_Ntk_t_, ptr %88, i32 0, i32 20
  %90 = getelementptr inbounds nuw %struct.Vec_Int_t_, ptr %89, i32 0, i32 0
  %91 = load i32, ptr %90, align 8, !tbaa !83
  %92 = mul nsw i32 4, %91
  %93 = load i32, ptr %3, align 4, !tbaa !8
  %94 = add nsw i32 %93, %92
  store i32 %94, ptr %3, align 4, !tbaa !8
  %95 = load ptr, ptr %2, align 8, !tbaa !10
  %96 = getelementptr inbounds nuw %struct.Wln_Ntk_t_, ptr %95, i32 0, i32 21
  %97 = getelementptr inbounds nuw %struct.Vec_Int_t_, ptr %96, i32 0, i32 0
  %98 = load i32, ptr %97, align 8, !tbaa !84
  %99 = mul nsw i32 4, %98
  %100 = load i32, ptr %3, align 4, !tbaa !8
  %101 = add nsw i32 %100, %99
  store i32 %101, ptr %3, align 4, !tbaa !8
  %102 = load ptr, ptr %2, align 8, !tbaa !10
  %103 = getelementptr inbounds nuw %struct.Wln_Ntk_t_, ptr %102, i32 0, i32 22
  %104 = getelementptr inbounds nuw %struct.Vec_Int_t_, ptr %103, i32 0, i32 0
  %105 = load i32, ptr %104, align 8, !tbaa !85
  %106 = mul nsw i32 4, %105
  %107 = load i32, ptr %3, align 4, !tbaa !8
  %108 = add nsw i32 %107, %106
  store i32 %108, ptr %3, align 4, !tbaa !8
  %109 = load ptr, ptr %2, align 8, !tbaa !10
  %110 = getelementptr inbounds nuw %struct.Wln_Ntk_t_, ptr %109, i32 0, i32 9
  %111 = load ptr, ptr %110, align 8, !tbaa !22
  %112 = call i32 @Hash_IntManEntryNum(ptr noundef %111)
  %113 = mul nsw i32 20, %112
  %114 = load i32, ptr %3, align 4, !tbaa !8
  %115 = add nsw i32 %114, %113
  store i32 %115, ptr %3, align 4, !tbaa !8
  %116 = load ptr, ptr %2, align 8, !tbaa !10
  %117 = getelementptr inbounds nuw %struct.Wln_Ntk_t_, ptr %116, i32 0, i32 12
  %118 = load ptr, ptr %117, align 8, !tbaa !51
  %119 = call i32 @Abc_NamMemUsed(ptr noundef %118)
  %120 = load i32, ptr %3, align 4, !tbaa !8
  %121 = add nsw i32 %120, %119
  store i32 %121, ptr %3, align 4, !tbaa !8
  %122 = load i32, ptr %3, align 4, !tbaa !8
  call void @llvm.lifetime.end.p0(i64 4, ptr %3) #11
  ret i32 %122
}