; Function Attrs: nounwind uwtable
define i32 @Wln_NtkMemUsage(ptr noundef readonly captures(none) %0) local_unnamed_addr #0 {
  %2 = getelementptr inbounds nuw i8, ptr %0, i64 24
  %3 = load i32, ptr %2, align 8, !tbaa !64
  %4 = getelementptr inbounds nuw i8, ptr %0, i64 40
  %5 = load i32, ptr %4, align 8, !tbaa !65
  %6 = getelementptr inbounds nuw i8, ptr %0, i64 56
  %7 = load i32, ptr %6, align 8, !tbaa !66
  %8 = getelementptr inbounds nuw i8, ptr %0, i64 72
  %9 = load i32, ptr %8, align 8, !tbaa !67
  %10 = getelementptr inbounds nuw i8, ptr %0, i64 96
  %11 = load i32, ptr %10, align 8, !tbaa !68
  %12 = getelementptr inbounds nuw i8, ptr %0, i64 120
  %13 = load i32, ptr %12, align 8, !tbaa !69
  %14 = getelementptr inbounds nuw i8, ptr %0, i64 136
  %15 = load i32, ptr %14, align 8, !tbaa !70
  %16 = getelementptr inbounds nuw i8, ptr %0, i64 184
  %17 = load i32, ptr %16, align 8, !tbaa !71
  %18 = getelementptr inbounds nuw i8, ptr %0, i64 200
  %19 = load i32, ptr %18, align 8, !tbaa !72
  %20 = getelementptr inbounds nuw i8, ptr %0, i64 216
  %21 = load i32, ptr %20, align 8, !tbaa !73
  %22 = getelementptr inbounds nuw i8, ptr %0, i64 232
  %23 = load i32, ptr %22, align 8, !tbaa !74
  %24 = getelementptr inbounds nuw i8, ptr %0, i64 248
  %25 = load i32, ptr %24, align 8, !tbaa !75
  %26 = getelementptr inbounds nuw i8, ptr %0, i64 264
  %27 = load i32, ptr %26, align 8, !tbaa !76
  %28 = getelementptr inbounds nuw i8, ptr %0, i64 280
  %29 = load i32, ptr %28, align 8, !tbaa !77
  %30 = getelementptr inbounds nuw i8, ptr %0, i64 296
  %31 = load i32, ptr %30, align 8, !tbaa !78
  %32 = getelementptr inbounds nuw i8, ptr %0, i64 112
  %33 = load ptr, ptr %32, align 8, !tbaa !34
  %34 = getelementptr i8, ptr %33, i64 8
  %.val = load ptr, ptr %34, align 8, !tbaa !32
  %35 = getelementptr i8, ptr %.val, i64 4
  %.val.val = load i32, ptr %35, align 4, !tbaa !21
  %36 = sdiv i32 %.val.val, 4
  %37 = mul i32 %36, 20
  %38 = getelementptr inbounds nuw i8, ptr %0, i64 152
  %39 = load ptr, ptr %38, align 8, !tbaa !46
  %40 = tail call i32 @Abc_NamMemUsed(ptr noundef %39) #18
  %41 = add i32 %5, %3
  %42 = add i32 %41, %7
  %43 = add i32 %42, %11
  %44 = add i32 %43, %13
  %45 = add i32 %44, %15
  %46 = add i32 %45, %17
  %47 = add i32 %46, %19
  %48 = add i32 %47, %21
  %49 = add i32 %48, %23
  %50 = add i32 %49, %25
  %51 = add i32 %50, %27
  %52 = add i32 %51, %29
  %reass.add = add i32 %52, %31
  %reass.mul = shl i32 %reass.add, 2
  %53 = add i32 %9, 1092
  %54 = add i32 %53, %reass.mul
  %55 = add i32 %54, %37
  %56 = add i32 %55, %40
  ret i32 %56
}